; Function Attrs: nounwind uwtable
define range(i32 0, 2) i32 @Acec_DetectBoothOne(ptr noundef readonly captures(none) %0, ptr noundef %1, ptr noundef captures(none) %2) local_unnamed_addr #0 {
  %4 = alloca ptr, align 8
  %5 = alloca ptr, align 8
  call void @llvm.lifetime.start.p0(i64 8, ptr nonnull %4) #10
  call void @llvm.lifetime.start.p0(i64 8, ptr nonnull %5) #10
  %6 = call i32 @Gia_ObjRecognizeExor(ptr noundef %1, ptr noundef nonnull %4, ptr noundef nonnull %5) #10
  %.not = icmp eq i32 %6, 0
  br i1 %.not, label %41, label %7

7:                                                ; preds = %3
  %8 = load ptr, ptr %4, align 8, !tbaa !3
  %9 = ptrtoint ptr %8 to i64
  %10 = and i64 %9, -2
  %11 = inttoptr i64 %10 to ptr
  store ptr %11, ptr %4, align 8, !tbaa !3
  %12 = load ptr, ptr %5, align 8, !tbaa !3
  %13 = ptrtoint ptr %12 to i64
  %14 = and i64 %13, -2
  %15 = inttoptr i64 %14 to ptr
  store ptr %15, ptr %5, align 8, !tbaa !3
  %16 = call i32 @Acec_DetectBoothXorFanin(ptr noundef %0, ptr noundef %11, ptr noundef %2)
  %.not9 = icmp eq i32 %16, 0
  %.pre = load ptr, ptr %5, align 8, !tbaa !3
  br i1 %.not9, label %27, label %17

17:                                               ; preds = %7
  %18 = getelementptr inbounds nuw i8, ptr %2, i64 8
  %19 = load i32, ptr %18, align 4, !tbaa !29
  %20 = getelementptr i8, ptr %0, i64 32
  %.val11 = load ptr, ptr %20, align 8, !tbaa !8
  %21 = ptrtoint ptr %.pre to i64
  %22 = ptrtoint ptr %.val11 to i64
  %23 = sub i64 %21, %22
  %24 = sdiv exact i64 %23, 12
  %25 = trunc i64 %24 to i32
  %26 = icmp eq i32 %19, %25
  br i1 %26, label %41, label %27

27:                                               ; preds = %17, %7
  %28 = call i32 @Acec_DetectBoothXorFanin(ptr noundef %0, ptr noundef %.pre, ptr noundef %2)
  %.not10 = icmp eq i32 %28, 0
  br i1 %.not10, label %40, label %29

29:                                               ; preds = %27
  %30 = getelementptr inbounds nuw i8, ptr %2, i64 8
  %31 = load i32, ptr %30, align 4, !tbaa !29
  %32 = load ptr, ptr %4, align 8, !tbaa !3
  %33 = getelementptr i8, ptr %0, i64 32
  %.val = load ptr, ptr %33, align 8, !tbaa !8
  %34 = ptrtoint ptr %32 to i64
  %35 = ptrtoint ptr %.val to i64
  %36 = sub i64 %34, %35
  %37 = sdiv exact i64 %36, 12
  %38 = trunc i64 %37 to i32
  %39 = icmp eq i32 %31, %38
  br i1 %39, label %41, label %40

40:                                               ; preds = %29, %27
  br label %41

41:                                               ; preds = %29, %17, %3, %40
  %.0 = phi i32 [ 0, %40 ], [ 0, %3 ], [ 1, %17 ], [ 1, %29 ]
  call void @llvm.lifetime.end.p0(i64 8, ptr nonnull %5) #10
  call void @llvm.lifetime.end.p0(i64 8, ptr nonnull %4) #10
  ret i32 %.0
}